target datalayout = "e-m:e-p270:32:32-p271:32:32-p272:64:64-i64:64-i128:128-f80:128-n8:16:32:64-S128"
target triple = "x86_64-pc-linux-gnu"

; Function Attrs: nounwind uwtable
define internal i32 @process_token(ptr noundef %0, ptr noundef %1, ptr noundef %2) #0 {
  %4 = alloca i32, align 4
  %5 = alloca ptr, align 8
  %6 = alloca ptr, align 8
  %7 = alloca ptr, align 8
  %8 = alloca ptr, align 8
  %9 = alloca ptr, align 8
  %10 = alloca i32, align 4
  %11 = alloca i32, align 4
  store ptr %0, ptr %5, align 8, !tbaa !20
  store ptr %1, ptr %6, align 8, !tbaa !49
  store ptr %2, ptr %7, align 8, !tbaa !49
  call void @llvm.lifetime.start.p0(i64 8, ptr %8) #11
  call void @llvm.lifetime.start.p0(i64 8, ptr %9) #11
  call void @llvm.lifetime.start.p0(i64 4, ptr %10) #11
  %12 = load ptr, ptr %5, align 8, !tbaa !20
  %13 = call ptr @strchr(ptr noundef %12, i32 noundef 61) #13
  store ptr %13, ptr %8, align 8, !tbaa !20
  %14 = icmp eq ptr null, %13
  br i1 %14, label %15, label %47

15:                                               ; preds = %3
  %16 = load ptr, ptr %5, align 8, !tbaa !20
  %17 = call ptr @getenv(ptr noundef %16) #11
  store ptr %17, ptr %9, align 8, !tbaa !20
  %18 = load ptr, ptr %9, align 8, !tbaa !20
  %19 = icmp eq ptr null, %18
  br i1 %19, label %20, label %21

20:                                               ; preds = %15
  store i32 -13, ptr %4, align 4
  store i32 1, ptr %11, align 4
  br label %57

21:                                               ; preds = %15
  %22 = load ptr, ptr %9, align 8, !tbaa !20
  %23 = call noalias ptr @strdup(ptr noundef %22) #11
  store ptr %23, ptr %9, align 8, !tbaa !20
  %24 = load ptr, ptr %9, align 8, !tbaa !20
  %25 = icmp eq ptr null, %24
  br i1 %25, label %26, label %27

26:                                               ; preds = %21
  store i32 -2, ptr %4, align 4
  store i32 1, ptr %11, align 4
  br label %57

27:                                               ; preds = %21
  %28 = load ptr, ptr %9, align 8, !tbaa !20
  %29 = call ptr @strchr(ptr noundef %28, i32 noundef 61) #13
  store ptr %29, ptr %8, align 8, !tbaa !20
  %30 = icmp ne ptr null, %29
  br i1 %30, label %31, label %39

31:                                               ; preds = %27
  %32 = load ptr, ptr %8, align 8, !tbaa !20
  store i8 0, ptr %32, align 1, !tbaa !24
  %33 = load ptr, ptr %6, align 8, !tbaa !49
  %34 = load ptr, ptr %7, align 8, !tbaa !49
  %35 = load ptr, ptr %9, align 8, !tbaa !20
  %36 = load ptr, ptr %8, align 8, !tbaa !20
  %37 = getelementptr inbounds i8, ptr %36, i64 1
  %38 = call i32 @check_cache(ptr noundef %33, ptr noundef %34, ptr noundef %35, ptr noundef %37)
  store i32 %38, ptr %10, align 4, !tbaa !13
  br label %45

39:                                               ; preds = %27
  %40 = load ptr, ptr %6, align 8, !tbaa !49
  %41 = load ptr, ptr %7, align 8, !tbaa !49
  %42 = load ptr, ptr %5, align 8, !tbaa !20
  %43 = load ptr, ptr %9, align 8, !tbaa !20
  %44 = call i32 @check_cache(ptr noundef %40, ptr noundef %41, ptr noundef %42, ptr noundef %43)
  store i32 %44, ptr %10, align 4, !tbaa !13
  br label %45

45:                                               ; preds = %39, %31
  %46 = load ptr, ptr %9, align 8, !tbaa !20
  call void @free(ptr noundef %46) #11
  br label %55

47:                                               ; preds = %3
  %48 = load ptr, ptr %8, align 8, !tbaa !20
  store i8 0, ptr %48, align 1, !tbaa !24
  %49 = load ptr, ptr %6, align 8, !tbaa !49
  %50 = load ptr, ptr %7, align 8, !tbaa !49
  %51 = load ptr, ptr %5, align 8, !tbaa !20
  %52 = load ptr, ptr %8, align 8, !tbaa !20
  %53 = getelementptr inbounds i8, ptr %52, i64 1
  %54 = call i32 @check_cache(ptr noundef %49, ptr noundef %50, ptr noundef %51, ptr noundef %53)
  store i32 %54, ptr %10, align 4, !tbaa !13
  br label %55

55:                                               ; preds = %47, %45
  %56 = load i32, ptr %10, align 4, !tbaa !13
  store i32 %56, ptr %4, align 4
  store i32 1, ptr %11, align 4
  br label %57

57:                                               ; preds = %55, %26, %20
  call void @llvm.lifetime.end.p0(i64 4, ptr %10) #11
  call void @llvm.lifetime.end.p0(i64 8, ptr %9) #11
  call void @llvm.lifetime.end.p0(i64 8, ptr %8) #11
  %58 = load i32, ptr %4, align 4
  ret i32 %58
}