; Function Attrs: nounwind uwtable
define internal fastcc range(i32 -13, 1) i32 @process_token(ptr noundef nonnull %0, ptr noundef nonnull %1, ptr noundef nonnull %2) unnamed_addr #0 {
  %4 = tail call ptr @strchr(ptr noundef nonnull dereferenceable(1) %0, i32 noundef 61) #20
  %5 = icmp eq ptr %4, null
  br i1 %5, label %6, label %20

6:                                                ; preds = %3
  %7 = tail call ptr @getenv(ptr noundef nonnull %0) #18
  %8 = icmp eq ptr %7, null
  br i1 %8, label %23, label %9

9:                                                ; preds = %6
  %10 = tail call noalias ptr @strdup(ptr noundef nonnull %7) #18
  %11 = icmp eq ptr %10, null
  br i1 %11, label %23, label %12

12:                                               ; preds = %9
  %13 = tail call ptr @strchr(ptr noundef nonnull dereferenceable(1) %10, i32 noundef 61) #20
  %.not = icmp eq ptr %13, null
  br i1 %.not, label %17, label %14

14:                                               ; preds = %12
  store i8 0, ptr %13, align 1, !tbaa !11
  %15 = getelementptr inbounds nuw i8, ptr %13, i64 1
  %16 = tail call fastcc i32 @check_cache(ptr noundef %1, ptr noundef %2, ptr noundef nonnull %10, ptr noundef nonnull %15)
  br label %19

17:                                               ; preds = %12
  %18 = tail call fastcc i32 @check_cache(ptr noundef %1, ptr noundef %2, ptr noundef nonnull %0, ptr noundef nonnull %10)
  br label %19

19:                                               ; preds = %17, %14
  %.0 = phi i32 [ %16, %14 ], [ %18, %17 ]
  tail call void @free(ptr noundef nonnull %10) #18
  br label %23

20:                                               ; preds = %3
  store i8 0, ptr %4, align 1, !tbaa !11
  %21 = getelementptr inbounds nuw i8, ptr %4, i64 1
  %22 = tail call fastcc i32 @check_cache(ptr noundef %1, ptr noundef %2, ptr noundef nonnull %0, ptr noundef nonnull %21)
  br label %23

23:                                               ; preds = %19, %20, %9, %6
  %.022 = phi i32 [ -13, %6 ], [ -2, %9 ], [ %.0, %19 ], [ %22, %20 ]
  ret i32 %.022
}